; Function Attrs: nounwind uwtable
define ptr @l_Lean_MVarId_assertHypotheses___lambda__1___boxed(ptr noundef %0, ptr noundef %1, ptr noundef %2, ptr noundef %3) #0 {
  tail call void @lean_inc_heartbeat() #4
  %5 = tail call noalias ptr @mi_malloc_small(i64 noundef 32) #4
  %6 = icmp eq ptr %5, null
  br i1 %6, label %7, label %lean_alloc_ctor.exit.i

7:                                                ; preds = %4
  tail call void @lean_internal_panic_out_of_memory() #5
  unreachable

lean_alloc_ctor.exit.i:                           ; preds = %4
  %8 = getelementptr inbounds nuw i8, ptr %5, i64 4
  store i32 1, ptr %5, align 4, !tbaa !4
  store i32 196640, ptr %8, align 4
  %9 = getelementptr inbounds nuw i8, ptr %5, i64 8
  store ptr inttoptr (i64 1 to ptr), ptr %9, align 8, !tbaa !10
  %10 = getelementptr inbounds nuw i8, ptr %5, i64 16
  store ptr %0, ptr %10, align 8, !tbaa !10
  %11 = getelementptr inbounds nuw i8, ptr %5, i64 24
  store ptr inttoptr (i64 3 to ptr), ptr %11, align 8, !tbaa !10
  %12 = tail call ptr @l_Std_Range_forIn_x27_loop___at_Lean_MVarId_assertHypotheses___spec__1(ptr noundef readonly %1, ptr noundef readonly %2, ptr noundef nonnull %5, ptr noundef %3, ptr noundef nonnull inttoptr (i64 1 to ptr), ptr nonnull poison, ptr nonnull poison)
  %13 = ptrtoint ptr %5 to i64
  %14 = and i64 %13, 1
  %.not.i10 = icmp eq i64 %14, 0
  br i1 %.not.i10, label %15, label %l_Lean_MVarId_assertHypotheses___lambda__1.exit

15:                                               ; preds = %lean_alloc_ctor.exit.i
  %16 = load i32, ptr %5, align 4, !tbaa !4
  %17 = icmp sgt i32 %16, 1
  br i1 %17, label %18, label %20, !prof !9

18:                                               ; preds = %15
  %19 = add nsw i32 %16, -1
  store i32 %19, ptr %5, align 4, !tbaa !4
  br label %l_Lean_MVarId_assertHypotheses___lambda__1.exit

20:                                               ; preds = %15
  %.not.i.i = icmp eq i32 %16, 0
  br i1 %.not.i.i, label %l_Lean_MVarId_assertHypotheses___lambda__1.exit, label %21

21:                                               ; preds = %20
  tail call void @lean_dec_ref_cold(ptr noundef nonnull %5) #4
  br label %l_Lean_MVarId_assertHypotheses___lambda__1.exit

l_Lean_MVarId_assertHypotheses___lambda__1.exit:  ; preds = %lean_alloc_ctor.exit.i, %18, %20, %21
  %22 = ptrtoint ptr %2 to i64
  %23 = and i64 %22, 1
  %.not = icmp eq i64 %23, 0
  br i1 %.not, label %24, label %lean_dec.exit7

24:                                               ; preds = %l_Lean_MVarId_assertHypotheses___lambda__1.exit
  %25 = load i32, ptr %2, align 4, !tbaa !4
  %26 = icmp sgt i32 %25, 1
  br i1 %26, label %27, label %29, !prof !9

27:                                               ; preds = %24
  %28 = add nsw i32 %25, -1
  store i32 %28, ptr %2, align 4, !tbaa !4
  br label %lean_dec.exit7

29:                                               ; preds = %24
  %.not.i = icmp eq i32 %25, 0
  br i1 %.not.i, label %lean_dec.exit7, label %30

30:                                               ; preds = %29
  tail call void @lean_dec_ref_cold(ptr noundef nonnull %2) #4
  br label %lean_dec.exit7

lean_dec.exit7:                                   ; preds = %30, %29, %27, %l_Lean_MVarId_assertHypotheses___lambda__1.exit
  %31 = ptrtoint ptr %1 to i64
  %32 = and i64 %31, 1
  %.not11 = icmp eq i64 %32, 0
  br i1 %.not11, label %33, label %lean_dec.exit

33:                                               ; preds = %lean_dec.exit7
  %34 = load i32, ptr %1, align 4, !tbaa !4
  %35 = icmp sgt i32 %34, 1
  br i1 %35, label %36, label %38, !prof !9

36:                                               ; preds = %33
  %37 = add nsw i32 %34, -1
  store i32 %37, ptr %1, align 4, !tbaa !4
  br label %lean_dec.exit

38:                                               ; preds = %33
  %.not.i8 = icmp eq i32 %34, 0
  br i1 %.not.i8, label %lean_dec.exit, label %39

39:                                               ; preds = %38
  tail call void @lean_dec_ref_cold(ptr noundef nonnull %1) #4
  br label %lean_dec.exit

lean_dec.exit:                                    ; preds = %39, %38, %36, %lean_dec.exit7
  ret ptr %12
}